target datalayout = "e-m:e-p270:32:32-p271:32:32-p272:64:64-i64:64-i128:128-f80:128-n8:16:32:64-S128"
target triple = "x86_64-pc-linux-gnu"

@hf_ieee_802_1qbg_subtype = internal global i32 0, align 4
@hf_ieee_802_1qbg_evb_support_caps = internal global i32 0, align 4
@hf_ieee_802_1qbg_evb_support_caps_std = internal global i32 0, align 4
@hf_ieee_802_1qbg_evb_support_caps_rr = internal global i32 0, align 4
@hf_ieee_802_1qbg_evb_support_caps_rte = internal global i32 0, align 4
@hf_ieee_802_1qbg_evb_support_caps_ecp = internal global i32 0, align 4
@hf_ieee_802_1qbg_evb_support_caps_vdp = internal global i32 0, align 4
@hf_ieee_802_1qbg_evb_configure_caps = internal global i32 0, align 4
@hf_ieee_802_1qbg_evb_configure_caps_std = internal global i32 0, align 4
@hf_ieee_802_1qbg_evb_configure_caps_rr = internal global i32 0, align 4
@hf_ieee_802_1qbg_evb_configure_caps_rte = internal global i32 0, align 4
@hf_ieee_802_1qbg_evb_configure_caps_ecp = internal global i32 0, align 4
@hf_ieee_802_1qbg_evb_configure_caps_vdp = internal global i32 0, align 4
@hf_ieee_802_1qbg_evb_supported_vsi = internal global i32 0, align 4
@hf_ieee_802_1qbg_evb_configured_vsi = internal global i32 0, align 4
@hf_ieee_802_1qbg_evb_retrans_timer = internal global i32 0, align 4
@ett_802_1qbg_capabilities_flags = internal global i32 0, align 4

; Function Attrs: null_pointer_is_valid sspstrong uwtable
define internal void @dissect_ieee_802_1qbg_tlv(ptr noundef %0, ptr noundef %1, ptr noundef %2) #0 {
  %4 = alloca ptr, align 8
  %5 = alloca ptr, align 8
  %6 = alloca ptr, align 8
  %7 = alloca i8, align 1
  %8 = alloca i32, align 4
  %9 = alloca ptr, align 8
  %10 = alloca ptr, align 8
  store ptr %0, ptr %4, align 8
  store ptr %1, ptr %5, align 8
  store ptr %2, ptr %6, align 8
  call void @llvm.lifetime.start.p0(i64 1, ptr %7) #9
  call void @llvm.lifetime.start.p0(i64 4, ptr %8) #9
  store i32 0, ptr %8, align 4
  call void @llvm.lifetime.start.p0(i64 8, ptr %9) #9
  store ptr null, ptr %9, align 8
  call void @llvm.lifetime.start.p0(i64 8, ptr %10) #9
  store ptr null, ptr %10, align 8
  %11 = load ptr, ptr %4, align 8
  %12 = load i32, ptr %8, align 4
  %13 = call zeroext i8 @tvb_get_uint8(ptr noundef %11, i32 noundef %12)
  store i8 %13, ptr %7, align 1
  %14 = load ptr, ptr %6, align 8
  %15 = load i32, ptr @hf_ieee_802_1qbg_subtype, align 4
  %16 = load ptr, ptr %4, align 8
  %17 = load i32, ptr %8, align 4
  %18 = call ptr @proto_tree_add_item(ptr noundef %14, i32 noundef %15, ptr noundef %16, i32 noundef %17, i32 noundef 1, i32 noundef 0)
  %19 = load i32, ptr %8, align 4
  %20 = add i32 %19, 1
  store i32 %20, ptr %8, align 4
  %21 = load i8, ptr %7, align 1
  %22 = zext i8 %21 to i32
  switch i32 %22, label %113 [
    i32 0, label %23
  ]

23:                                               ; preds = %3
  %24 = load ptr, ptr %6, align 8
  %25 = load i32, ptr @hf_ieee_802_1qbg_evb_support_caps, align 4
  %26 = load ptr, ptr %4, align 8
  %27 = load i32, ptr %8, align 4
  %28 = call ptr @proto_tree_add_item(ptr noundef %24, i32 noundef %25, ptr noundef %26, i32 noundef %27, i32 noundef 2, i32 noundef 0)
  store ptr %28, ptr %10, align 8
  %29 = load ptr, ptr %10, align 8
  %30 = load i32, ptr @ett_802_1qbg_capabilities_flags, align 4
  %31 = call ptr @proto_item_add_subtree(ptr noundef %29, i32 noundef %30)
  store ptr %31, ptr %9, align 8
  %32 = load ptr, ptr %9, align 8
  %33 = load i32, ptr @hf_ieee_802_1qbg_evb_support_caps_std, align 4
  %34 = load ptr, ptr %4, align 8
  %35 = load i32, ptr %8, align 4
  %36 = call ptr @proto_tree_add_item(ptr noundef %32, i32 noundef %33, ptr noundef %34, i32 noundef %35, i32 noundef 2, i32 noundef 0)
  %37 = load ptr, ptr %9, align 8
  %38 = load i32, ptr @hf_ieee_802_1qbg_evb_support_caps_rr, align 4
  %39 = load ptr, ptr %4, align 8
  %40 = load i32, ptr %8, align 4
  %41 = call ptr @proto_tree_add_item(ptr noundef %37, i32 noundef %38, ptr noundef %39, i32 noundef %40, i32 noundef 2, i32 noundef 0)
  %42 = load ptr, ptr %9, align 8
  %43 = load i32, ptr @hf_ieee_802_1qbg_evb_support_caps_rte, align 4
  %44 = load ptr, ptr %4, align 8
  %45 = load i32, ptr %8, align 4
  %46 = call ptr @proto_tree_add_item(ptr noundef %42, i32 noundef %43, ptr noundef %44, i32 noundef %45, i32 noundef 2, i32 noundef 0)
  %47 = load ptr, ptr %9, align 8
  %48 = load i32, ptr @hf_ieee_802_1qbg_evb_support_caps_ecp, align 4
  %49 = load ptr, ptr %4, align 8
  %50 = load i32, ptr %8, align 4
  %51 = call ptr @proto_tree_add_item(ptr noundef %47, i32 noundef %48, ptr noundef %49, i32 noundef %50, i32 noundef 2, i32 noundef 0)
  %52 = load ptr, ptr %9, align 8
  %53 = load i32, ptr @hf_ieee_802_1qbg_evb_support_caps_vdp, align 4
  %54 = load ptr, ptr %4, align 8
  %55 = load i32, ptr %8, align 4
  %56 = call ptr @proto_tree_add_item(ptr noundef %52, i32 noundef %53, ptr noundef %54, i32 noundef %55, i32 noundef 2, i32 noundef 0)
  %57 = load i32, ptr %8, align 4
  %58 = add i32 %57, 2
  store i32 %58, ptr %8, align 4
  %59 = load ptr, ptr %6, align 8
  %60 = load i32, ptr @hf_ieee_802_1qbg_evb_configure_caps, align 4
  %61 = load ptr, ptr %4, align 8
  %62 = load i32, ptr %8, align 4
  %63 = call ptr @proto_tree_add_item(ptr noundef %59, i32 noundef %60, ptr noundef %61, i32 noundef %62, i32 noundef 2, i32 noundef 0)
  store ptr %63, ptr %10, align 8
  %64 = load ptr, ptr %10, align 8
  %65 = load i32, ptr @ett_802_1qbg_capabilities_flags, align 4
  %66 = call ptr @proto_item_add_subtree(ptr noundef %64, i32 noundef %65)
  store ptr %66, ptr %9, align 8
  %67 = load ptr, ptr %9, align 8
  %68 = load i32, ptr @hf_ieee_802_1qbg_evb_configure_caps_std, align 4
  %69 = load ptr, ptr %4, align 8
  %70 = load i32, ptr %8, align 4
  %71 = call ptr @proto_tree_add_item(ptr noundef %67, i32 noundef %68, ptr noundef %69, i32 noundef %70, i32 noundef 2, i32 noundef 0)
  %72 = load ptr, ptr %9, align 8
  %73 = load i32, ptr @hf_ieee_802_1qbg_evb_configure_caps_rr, align 4
  %74 = load ptr, ptr %4, align 8
  %75 = load i32, ptr %8, align 4
  %76 = call ptr @proto_tree_add_item(ptr noundef %72, i32 noundef %73, ptr noundef %74, i32 noundef %75, i32 noundef 2, i32 noundef 0)
  %77 = load ptr, ptr %9, align 8
  %78 = load i32, ptr @hf_ieee_802_1qbg_evb_configure_caps_rte, align 4
  %79 = load ptr, ptr %4, align 8
  %80 = load i32, ptr %8, align 4
  %81 = call ptr @proto_tree_add_item(ptr noundef %77, i32 noundef %78, ptr noundef %79, i32 noundef %80, i32 noundef 2, i32 noundef 0)
  %82 = load ptr, ptr %9, align 8
  %83 = load i32, ptr @hf_ieee_802_1qbg_evb_configure_caps_ecp, align 4
  %84 = load ptr, ptr %4, align 8
  %85 = load i32, ptr %8, align 4
  %86 = call ptr @proto_tree_add_item(ptr noundef %82, i32 noundef %83, ptr noundef %84, i32 noundef %85, i32 noundef 2, i32 noundef 0)
  %87 = load ptr, ptr %9, align 8
  %88 = load i32, ptr @hf_ieee_802_1qbg_evb_configure_caps_vdp, align 4
  %89 = load ptr, ptr %4, align 8
  %90 = load i32, ptr %8, align 4
  %91 = call ptr @proto_tree_add_item(ptr noundef %87, i32 noundef %88, ptr noundef %89, i32 noundef %90, i32 noundef 2, i32 noundef 0)
  %92 = load i32, ptr %8, align 4
  %93 = add i32 %92, 2
  store i32 %93, ptr %8, align 4
  %94 = load ptr, ptr %6, align 8
  %95 = load i32, ptr @hf_ieee_802_1qbg_evb_supported_vsi, align 4
  %96 = load ptr, ptr %4, align 8
  %97 = load i32, ptr %8, align 4
  %98 = call ptr @proto_tree_add_item(ptr noundef %94, i32 noundef %95, ptr noundef %96, i32 noundef %97, i32 noundef 2, i32 noundef 0)
  %99 = load i32, ptr %8, align 4
  %100 = add i32 %99, 2
  store i32 %100, ptr %8, align 4
  %101 = load ptr, ptr %6, align 8
  %102 = load i32, ptr @hf_ieee_802_1qbg_evb_configured_vsi, align 4
  %103 = load ptr, ptr %4, align 8
  %104 = load i32, ptr %8, align 4
  %105 = call ptr @proto_tree_add_item(ptr noundef %101, i32 noundef %102, ptr noundef %103, i32 noundef %104, i32 noundef 2, i32 noundef 0)
  %106 = load i32, ptr %8, align 4
  %107 = add i32 %106, 2
  store i32 %107, ptr %8, align 4
  %108 = load ptr, ptr %6, align 8
  %109 = load i32, ptr @hf_ieee_802_1qbg_evb_retrans_timer, align 4
  %110 = load ptr, ptr %4, align 8
  %111 = load i32, ptr %8, align 4
  %112 = call ptr @proto_tree_add_item(ptr noundef %108, i32 noundef %109, ptr noundef %110, i32 noundef %111, i32 noundef 1, i32 noundef 0)
  br label %113

113:                                              ; preds = %3, %23
  call void @llvm.lifetime.end.p0(i64 8, ptr %10) #9
  call void @llvm.lifetime.end.p0(i64 8, ptr %9) #9
  call void @llvm.lifetime.end.p0(i64 4, ptr %8) #9
  call void @llvm.lifetime.end.p0(i64 1, ptr %7) #9
  ret void
}