; Function Attrs: null_pointer_is_valid sspstrong uwtable
define internal fastcc void @dissect_ieee_802_1qbg_tlv(ptr noundef %0, ptr noundef %1) unnamed_addr #0 {
  %3 = tail call zeroext i8 @tvb_get_uint8(ptr noundef %0, i32 noundef 0)
  %4 = load i32, ptr @hf_ieee_802_1qbg_subtype, align 4
  %5 = tail call ptr @proto_tree_add_item(ptr noundef %1, i32 noundef %4, ptr noundef %0, i32 noundef 0, i32 noundef 1, i32 noundef 0)
  %cond = icmp eq i8 %3, 0
  br i1 %cond, label %6, label %41

6:                                                ; preds = %2
  %7 = load i32, ptr @hf_ieee_802_1qbg_evb_support_caps, align 4
  %8 = tail call ptr @proto_tree_add_item(ptr noundef %1, i32 noundef %7, ptr noundef %0, i32 noundef 1, i32 noundef 2, i32 noundef 0)
  %9 = load i32, ptr @ett_802_1qbg_capabilities_flags, align 4
  %10 = tail call ptr @proto_item_add_subtree(ptr noundef %8, i32 noundef %9)
  %11 = load i32, ptr @hf_ieee_802_1qbg_evb_support_caps_std, align 4
  %12 = tail call ptr @proto_tree_add_item(ptr noundef %10, i32 noundef %11, ptr noundef %0, i32 noundef 1, i32 noundef 2, i32 noundef 0)
  %13 = load i32, ptr @hf_ieee_802_1qbg_evb_support_caps_rr, align 4
  %14 = tail call ptr @proto_tree_add_item(ptr noundef %10, i32 noundef %13, ptr noundef %0, i32 noundef 1, i32 noundef 2, i32 noundef 0)
  %15 = load i32, ptr @hf_ieee_802_1qbg_evb_support_caps_rte, align 4
  %16 = tail call ptr @proto_tree_add_item(ptr noundef %10, i32 noundef %15, ptr noundef %0, i32 noundef 1, i32 noundef 2, i32 noundef 0)
  %17 = load i32, ptr @hf_ieee_802_1qbg_evb_support_caps_ecp, align 4
  %18 = tail call ptr @proto_tree_add_item(ptr noundef %10, i32 noundef %17, ptr noundef %0, i32 noundef 1, i32 noundef 2, i32 noundef 0)
  %19 = load i32, ptr @hf_ieee_802_1qbg_evb_support_caps_vdp, align 4
  %20 = tail call ptr @proto_tree_add_item(ptr noundef %10, i32 noundef %19, ptr noundef %0, i32 noundef 1, i32 noundef 2, i32 noundef 0)
  %21 = load i32, ptr @hf_ieee_802_1qbg_evb_configure_caps, align 4
  %22 = tail call ptr @proto_tree_add_item(ptr noundef %1, i32 noundef %21, ptr noundef %0, i32 noundef 3, i32 noundef 2, i32 noundef 0)
  %23 = load i32, ptr @ett_802_1qbg_capabilities_flags, align 4
  %24 = tail call ptr @proto_item_add_subtree(ptr noundef %22, i32 noundef %23)
  %25 = load i32, ptr @hf_ieee_802_1qbg_evb_configure_caps_std, align 4
  %26 = tail call ptr @proto_tree_add_item(ptr noundef %24, i32 noundef %25, ptr noundef %0, i32 noundef 3, i32 noundef 2, i32 noundef 0)
  %27 = load i32, ptr @hf_ieee_802_1qbg_evb_configure_caps_rr, align 4
  %28 = tail call ptr @proto_tree_add_item(ptr noundef %24, i32 noundef %27, ptr noundef %0, i32 noundef 3, i32 noundef 2, i32 noundef 0)
  %29 = load i32, ptr @hf_ieee_802_1qbg_evb_configure_caps_rte, align 4
  %30 = tail call ptr @proto_tree_add_item(ptr noundef %24, i32 noundef %29, ptr noundef %0, i32 noundef 3, i32 noundef 2, i32 noundef 0)
  %31 = load i32, ptr @hf_ieee_802_1qbg_evb_configure_caps_ecp, align 4
  %32 = tail call ptr @proto_tree_add_item(ptr noundef %24, i32 noundef %31, ptr noundef %0, i32 noundef 3, i32 noundef 2, i32 noundef 0)
  %33 = load i32, ptr @hf_ieee_802_1qbg_evb_configure_caps_vdp, align 4
  %34 = tail call ptr @proto_tree_add_item(ptr noundef %24, i32 noundef %33, ptr noundef %0, i32 noundef 3, i32 noundef 2, i32 noundef 0)
  %35 = load i32, ptr @hf_ieee_802_1qbg_evb_supported_vsi, align 4
  %36 = tail call ptr @proto_tree_add_item(ptr noundef %1, i32 noundef %35, ptr noundef %0, i32 noundef 5, i32 noundef 2, i32 noundef 0)
  %37 = load i32, ptr @hf_ieee_802_1qbg_evb_configured_vsi, align 4
  %38 = tail call ptr @proto_tree_add_item(ptr noundef %1, i32 noundef %37, ptr noundef %0, i32 noundef 7, i32 noundef 2, i32 noundef 0)
  %39 = load i32, ptr @hf_ieee_802_1qbg_evb_retrans_timer, align 4
  %40 = tail call ptr @proto_tree_add_item(ptr noundef %1, i32 noundef %39, ptr noundef %0, i32 noundef 9, i32 noundef 1, i32 noundef 0)
  br label %41

41:                                               ; preds = %2, %6
  ret void
}